target datalayout = "e-m:e-p270:32:32-p271:32:32-p272:64:64-i64:64-i128:128-f80:128-n8:16:32:64-S128"
target triple = "x86_64-pc-linux-gnu"

%struct.AVChannelLayout = type { i32, i32, %union.anon, ptr }
%union.anon = type { i64 }
%struct.AVFormatContext = type { ptr, ptr, ptr, ptr, ptr, i32, i32, ptr, i32, ptr, i32, ptr, ptr, i64, i64, i64, i32, i32, i32, i64, i64, ptr, i32, i32, ptr, i32, i32, i32, i32, ptr, i64, i32, i32, %struct.AVIOInterruptCB, i32, i32, i32, i32, i64, i32, i32, i32, i32, i32, i32, i32, i32, i32, i32, i32, i32, i64, i32, i32, i32, i32, i32, ptr, ptr, ptr, ptr, i32, ptr, ptr, ptr, ptr, i32, ptr, ptr, i64, ptr, ptr, ptr, i64 }
%struct.AVIOInterruptCB = type { ptr, ptr }
%struct.AVStream = type { ptr, i32, i32, ptr, ptr, %struct.AVRational, i64, i64, i64, i32, i32, %struct.AVRational, ptr, %struct.AVRational, %struct.AVPacket, i32, %struct.AVRational, i32 }
%struct.AVPacket = type { ptr, i64, i64, ptr, i32, i32, i32, ptr, i32, i64, i64, ptr, ptr, %struct.AVRational }
%struct.AVRational = type { i32, i32 }
%struct.AVCodecParameters = type { i32, i32, i32, ptr, i32, ptr, i32, i32, i64, i32, i32, i32, i32, i32, i32, %struct.AVRational, %struct.AVRational, i32, i32, i32, i32, i32, i32, i32, %struct.AVChannelLayout, i32, i32, i32, i32, i32, i32 }

; Function Attrs: alwaysinline nounwind uwtable
define internal i64 @avio_tell(ptr noundef %0) #4 {
  %2 = alloca ptr, align 8
  store ptr %0, ptr %2, align 8, !tbaa !86
  %3 = load ptr, ptr %2, align 8, !tbaa !86
  %4 = call i64 @avio_seek(ptr noundef %3, i64 noundef 0, i32 noundef 1)
  ret i64 %4
}

; Function Attrs: nounwind uwtable
define internal i32 @aal_read_packet(ptr noundef %0, ptr noundef %1) #0 {
  %3 = alloca i32, align 4
  %4 = alloca ptr, align 8
  %5 = alloca ptr, align 8
  %6 = alloca i64, align 8
  %7 = alloca i32, align 4
  %8 = alloca i32, align 4
  %9 = alloca i32, align 4
  %10 = alloca i32, align 4
  %11 = alloca i32, align 4
  store ptr %0, ptr %4, align 8, !tbaa !17
  store ptr %1, ptr %5, align 8, !tbaa !81
  call void @llvm.lifetime.start.p0(i64 8, ptr %6) #9
  %12 = load ptr, ptr %4, align 8, !tbaa !17
  %13 = getelementptr inbounds nuw %struct.AVFormatContext, ptr %12, i32 0, i32 4
  %14 = load ptr, ptr %13, align 8, !tbaa !38
  %15 = call i64 @avio_tell(ptr noundef %14)
  store i64 %15, ptr %6, align 8, !tbaa !83
  call void @llvm.lifetime.start.p0(i64 4, ptr %7) #9
  call void @llvm.lifetime.start.p0(i64 4, ptr %8) #9
  call void @llvm.lifetime.start.p0(i64 4, ptr %9) #9
  call void @llvm.lifetime.start.p0(i64 4, ptr %10) #9
  %16 = load ptr, ptr %4, align 8, !tbaa !17
  %17 = getelementptr inbounds nuw %struct.AVFormatContext, ptr %16, i32 0, i32 4
  %18 = load ptr, ptr %17, align 8, !tbaa !38
  %19 = call i32 @avio_feof(ptr noundef %18)
  %20 = icmp ne i32 %19, 0
  br i1 %20, label %21, label %22

21:                                               ; preds = %2
  store i32 -541478725, ptr %3, align 4
  store i32 1, ptr %11, align 4
  br label %113

22:                                               ; preds = %2
  %23 = load ptr, ptr %4, align 8, !tbaa !17
  %24 = getelementptr inbounds nuw %struct.AVFormatContext, ptr %23, i32 0, i32 4
  %25 = load ptr, ptr %24, align 8, !tbaa !38
  %26 = call i32 @avio_rb24(ptr noundef %25)
  store i32 %26, ptr %10, align 4, !tbaa !14
  %27 = load i32, ptr %10, align 4, !tbaa !14
  %28 = icmp eq i32 %27, 0
  br i1 %28, label %29, label %30

29:                                               ; preds = %22
  store i32 -541478725, ptr %3, align 4
  store i32 1, ptr %11, align 4
  br label %113

30:                                               ; preds = %22
  %31 = load i32, ptr %10, align 4, !tbaa !14
  %32 = icmp ne i32 %31, 4344907
  br i1 %32, label %33, label %34

33:                                               ; preds = %30
  store i32 -1094995529, ptr %3, align 4
  store i32 1, ptr %11, align 4
  br label %113

34:                                               ; preds = %30
  br label %35

35:                                               ; preds = %34
  %36 = load ptr, ptr %4, align 8, !tbaa !17
  %37 = getelementptr inbounds nuw %struct.AVFormatContext, ptr %36, i32 0, i32 4
  %38 = load ptr, ptr %37, align 8, !tbaa !38
  %39 = call i64 @avio_skip(ptr noundef %38, i64 noundef 1)
  %40 = load ptr, ptr %4, align 8, !tbaa !17
  %41 = getelementptr inbounds nuw %struct.AVFormatContext, ptr %40, i32 0, i32 4
  %42 = load ptr, ptr %41, align 8, !tbaa !38
  %43 = call i32 @avio_rb16(ptr noundef %42)
  store i32 %43, ptr %9, align 4, !tbaa !14
  %44 = load ptr, ptr %4, align 8, !tbaa !17
  %45 = getelementptr inbounds nuw %struct.AVFormatContext, ptr %44, i32 0, i32 4
  %46 = load ptr, ptr %45, align 8, !tbaa !38
  %47 = call i64 @avio_skip(ptr noundef %46, i64 noundef 2)
  %48 = load ptr, ptr %4, align 8, !tbaa !17
  %49 = getelementptr inbounds nuw %struct.AVFormatContext, ptr %48, i32 0, i32 4
  %50 = load ptr, ptr %49, align 8, !tbaa !38
  %51 = call i32 @avio_rb32(ptr noundef %50)
  store i32 %51, ptr %8, align 4, !tbaa !14
  %52 = load ptr, ptr %4, align 8, !tbaa !17
  %53 = getelementptr inbounds nuw %struct.AVFormatContext, ptr %52, i32 0, i32 4
  %54 = load ptr, ptr %53, align 8, !tbaa !38
  %55 = call i64 @avio_skip(ptr noundef %54, i64 noundef 12)
  %56 = load ptr, ptr %4, align 8, !tbaa !17
  %57 = getelementptr inbounds nuw %struct.AVFormatContext, ptr %56, i32 0, i32 4
  %58 = load ptr, ptr %57, align 8, !tbaa !38
  %59 = load ptr, ptr %5, align 8, !tbaa !81
  %60 = load i32, ptr %9, align 4, !tbaa !14
  %61 = call i32 @av_get_packet(ptr noundef %58, ptr noundef %59, i32 noundef %60)
  store i32 %61, ptr %7, align 4, !tbaa !14
  %62 = load i32, ptr %7, align 4, !tbaa !14
  %63 = load i32, ptr %9, align 4, !tbaa !14
  %64 = icmp slt i32 %62, %63
  br i1 %64, label %65, label %70

65:                                               ; preds = %35
  %66 = load ptr, ptr %5, align 8, !tbaa !81
  %67 = getelementptr inbounds nuw %struct.AVPacket, ptr %66, i32 0, i32 6
  %68 = load i32, ptr %67, align 8, !tbaa !107
  %69 = or i32 %68, 2
  store i32 %69, ptr %67, align 8, !tbaa !107
  br label %70

70:                                               ; preds = %65, %35
  %71 = load i32, ptr %7, align 4, !tbaa !14
  %72 = icmp slt i32 %71, 0
  br i1 %72, label %73, label %75

73:                                               ; preds = %70
  %74 = load i32, ptr %7, align 4, !tbaa !14
  store i32 %74, ptr %3, align 4
  store i32 1, ptr %11, align 4
  br label %113

75:                                               ; preds = %70
  %76 = load i32, ptr %7, align 4, !tbaa !14
  %77 = icmp ne i32 %76, 0
  br i1 %77, label %79, label %78

78:                                               ; preds = %75
  store i32 -541478725, ptr %3, align 4
  store i32 1, ptr %11, align 4
  br label %113

79:                                               ; preds = %75
  %80 = load ptr, ptr %5, align 8, !tbaa !81
  %81 = getelementptr inbounds nuw %struct.AVPacket, ptr %80, i32 0, i32 5
  store i32 0, ptr %81, align 4, !tbaa !108
  %82 = load i64, ptr %6, align 8, !tbaa !83
  %83 = load ptr, ptr %5, align 8, !tbaa !81
  %84 = getelementptr inbounds nuw %struct.AVPacket, ptr %83, i32 0, i32 10
  store i64 %82, ptr %84, align 8, !tbaa !114
  %85 = load ptr, ptr %4, align 8, !tbaa !17
  %86 = getelementptr inbounds nuw %struct.AVFormatContext, ptr %85, i32 0, i32 7
  %87 = load ptr, ptr %86, align 8, !tbaa !84
  %88 = getelementptr inbounds ptr, ptr %87, i64 0
  %89 = load ptr, ptr %88, align 8, !tbaa !44
  %90 = getelementptr inbounds nuw %struct.AVStream, ptr %89, i32 0, i32 3
  %91 = load ptr, ptr %90, align 8, !tbaa !53
  %92 = getelementptr inbounds nuw %struct.AVCodecParameters, ptr %91, i32 0, i32 1
  %93 = load i32, ptr %92, align 4, !tbaa !58
  %94 = icmp eq i32 %93, 86098
  br i1 %94, label %95, label %103

95:                                               ; preds = %79
  %96 = load ptr, ptr %5, align 8, !tbaa !81
  %97 = getelementptr inbounds nuw %struct.AVPacket, ptr %96, i32 0, i32 9
  store i64 1024, ptr %97, align 8, !tbaa !115
  %98 = load i32, ptr %8, align 4, !tbaa !14
  %99 = sext i32 %98 to i64
  %100 = mul nsw i64 %99, 1024
  %101 = load ptr, ptr %5, align 8, !tbaa !81
  %102 = getelementptr inbounds nuw %struct.AVPacket, ptr %101, i32 0, i32 1
  store i64 %100, ptr %102, align 8, !tbaa !112
  br label %111

103:                                              ; preds = %79
  %104 = load ptr, ptr %5, align 8, !tbaa !81
  %105 = getelementptr inbounds nuw %struct.AVPacket, ptr %104, i32 0, i32 9
  store i64 2048, ptr %105, align 8, !tbaa !115
  %106 = load i32, ptr %8, align 4, !tbaa !14
  %107 = sext i32 %106 to i64
  %108 = mul nsw i64 %107, 2048
  %109 = load ptr, ptr %5, align 8, !tbaa !81
  %110 = getelementptr inbounds nuw %struct.AVPacket, ptr %109, i32 0, i32 1
  store i64 %108, ptr %110, align 8, !tbaa !112
  br label %111

111:                                              ; preds = %103, %95
  %112 = load i32, ptr %7, align 4, !tbaa !14
  store i32 %112, ptr %3, align 4
  store i32 1, ptr %11, align 4
  br label %113

113:                                              ; preds = %111, %78, %73, %33, %29, %21
  call void @llvm.lifetime.end.p0(i64 4, ptr %10) #9
  call void @llvm.lifetime.end.p0(i64 4, ptr %9) #9
  call void @llvm.lifetime.end.p0(i64 4, ptr %8) #9
  call void @llvm.lifetime.end.p0(i64 4, ptr %7) #9
  call void @llvm.lifetime.end.p0(i64 8, ptr %6) #9
  %114 = load i32, ptr %3, align 4
  ret i32 %114
}