; Function Attrs: nounwind uwtable
define internal range(i32 1, 0) i32 @aal_read_packet(ptr noundef readonly captures(none) %0, ptr noundef %1) #0 {
  %3 = getelementptr inbounds nuw i8, ptr %0, i64 32
  %4 = load ptr, ptr %3, align 8, !tbaa !30
  %5 = tail call i64 @avio_seek(ptr noundef %4, i64 noundef 0, i32 noundef 1) #9
  %6 = load ptr, ptr %3, align 8, !tbaa !30
  %7 = tail call i32 @avio_feof(ptr noundef %6) #9
  %.not = icmp eq i32 %7, 0
  br i1 %.not, label %8, label %51

8:                                                ; preds = %2
  %9 = load ptr, ptr %3, align 8, !tbaa !30
  %10 = tail call i32 @avio_rb24(ptr noundef %9) #9
  switch i32 %10, label %11 [
    i32 0, label %51
    i32 4344907, label %12
  ]

11:                                               ; preds = %8
  br label %51

12:                                               ; preds = %8
  %13 = load ptr, ptr %3, align 8, !tbaa !30
  %14 = tail call i64 @avio_skip(ptr noundef %13, i64 noundef 1) #9
  %15 = load ptr, ptr %3, align 8, !tbaa !30
  %16 = tail call i32 @avio_rb16(ptr noundef %15) #9
  %17 = load ptr, ptr %3, align 8, !tbaa !30
  %18 = tail call i64 @avio_skip(ptr noundef %17, i64 noundef 2) #9
  %19 = load ptr, ptr %3, align 8, !tbaa !30
  %20 = tail call i32 @avio_rb32(ptr noundef %19) #9
  %21 = load ptr, ptr %3, align 8, !tbaa !30
  %22 = tail call i64 @avio_skip(ptr noundef %21, i64 noundef 12) #9
  %23 = load ptr, ptr %3, align 8, !tbaa !30
  %24 = tail call i32 @av_get_packet(ptr noundef %23, ptr noundef %1, i32 noundef %16) #9
  %25 = icmp slt i32 %24, %16
  br i1 %25, label %26, label %30

26:                                               ; preds = %12
  %27 = getelementptr inbounds nuw i8, ptr %1, i64 40
  %28 = load i32, ptr %27, align 8, !tbaa !92
  %29 = or i32 %28, 2
  store i32 %29, ptr %27, align 8, !tbaa !92
  br label %30

30:                                               ; preds = %26, %12
  %31 = icmp slt i32 %24, 0
  br i1 %31, label %51, label %32

32:                                               ; preds = %30
  %.not33 = icmp eq i32 %24, 0
  br i1 %.not33, label %51, label %33

33:                                               ; preds = %32
  %34 = getelementptr inbounds nuw i8, ptr %1, i64 36
  store i32 0, ptr %34, align 4, !tbaa !93
  %35 = getelementptr inbounds nuw i8, ptr %1, i64 72
  store i64 %5, ptr %35, align 8, !tbaa !99
  %36 = getelementptr inbounds nuw i8, ptr %0, i64 48
  %37 = load ptr, ptr %36, align 8, !tbaa !89
  %38 = load ptr, ptr %37, align 8, !tbaa !90
  %39 = getelementptr inbounds nuw i8, ptr %38, i64 16
  %40 = load ptr, ptr %39, align 8, !tbaa !62
  %41 = getelementptr inbounds nuw i8, ptr %40, i64 4
  %42 = load i32, ptr %41, align 4, !tbaa !67
  %43 = icmp eq i32 %42, 86098
  %44 = getelementptr inbounds nuw i8, ptr %1, i64 64
  %45 = sext i32 %20 to i64
  %46 = getelementptr inbounds nuw i8, ptr %1, i64 8
  br i1 %43, label %47, label %49

47:                                               ; preds = %33
  store i64 1024, ptr %44, align 8, !tbaa !100
  %48 = shl nsw i64 %45, 10
  store i64 %48, ptr %46, align 8, !tbaa !97
  br label %51

49:                                               ; preds = %33
  store i64 2048, ptr %44, align 8, !tbaa !100
  %50 = shl nsw i64 %45, 11
  store i64 %50, ptr %46, align 8, !tbaa !97
  br label %51

51:                                               ; preds = %47, %49, %32, %30, %8, %2, %11
  %.0 = phi i32 [ -1094995529, %11 ], [ -541478725, %2 ], [ -541478725, %8 ], [ %24, %30 ], [ -541478725, %32 ], [ %24, %49 ], [ %24, %47 ]
  ret i32 %.0
}